target datalayout = "e-m:e-p270:32:32-p271:32:32-p272:64:64-i64:64-i128:128-f80:128-n8:16:32:64-S128"
target triple = "x86_64-pc-linux-gnu"

; Function Attrs: inlinehint nounwind uwtable
define internal void @rgb32tobgr16_c(ptr noundef %0, ptr noundef %1, i32 noundef %2) #4 {
  %4 = alloca ptr, align 8
  %5 = alloca ptr, align 8
  %6 = alloca i32, align 4
  %7 = alloca ptr, align 8
  %8 = alloca ptr, align 8
  %9 = alloca ptr, align 8
  %10 = alloca i32, align 4
  store ptr %0, ptr %4, align 8, !tbaa !4
  store ptr %1, ptr %5, align 8, !tbaa !4
  store i32 %2, ptr %6, align 4, !tbaa !9
  call void @llvm.lifetime.start.p0(i64 8, ptr %7) #5
  %11 = load ptr, ptr %5, align 8, !tbaa !4
  store ptr %11, ptr %7, align 8, !tbaa !20
  call void @llvm.lifetime.start.p0(i64 8, ptr %8) #5
  %12 = load ptr, ptr %4, align 8, !tbaa !4
  store ptr %12, ptr %8, align 8, !tbaa !4
  call void @llvm.lifetime.start.p0(i64 8, ptr %9) #5
  %13 = load ptr, ptr %8, align 8, !tbaa !4
  %14 = load i32, ptr %6, align 4, !tbaa !9
  %15 = sext i32 %14 to i64
  %16 = getelementptr inbounds i8, ptr %13, i64 %15
  store ptr %16, ptr %9, align 8, !tbaa !4
  br label %17

17:                                               ; preds = %21, %3
  %18 = load ptr, ptr %8, align 8, !tbaa !4
  %19 = load ptr, ptr %9, align 8, !tbaa !4
  %20 = icmp ult ptr %18, %19
  br i1 %20, label %21, label %40

21:                                               ; preds = %17
  call void @llvm.lifetime.start.p0(i64 4, ptr %10) #5
  %22 = load ptr, ptr %8, align 8, !tbaa !4
  %23 = load i32, ptr %22, align 4, !tbaa !9
  store i32 %23, ptr %10, align 4, !tbaa !9
  %24 = load ptr, ptr %8, align 8, !tbaa !4
  %25 = getelementptr inbounds i8, ptr %24, i64 4
  store ptr %25, ptr %8, align 8, !tbaa !4
  %26 = load i32, ptr %10, align 4, !tbaa !9
  %27 = and i32 %26, 248
  %28 = shl i32 %27, 8
  %29 = load i32, ptr %10, align 4, !tbaa !9
  %30 = and i32 %29, 64512
  %31 = ashr i32 %30, 5
  %32 = add nsw i32 %28, %31
  %33 = load i32, ptr %10, align 4, !tbaa !9
  %34 = and i32 %33, 16252928
  %35 = ashr i32 %34, 19
  %36 = add nsw i32 %32, %35
  %37 = trunc i32 %36 to i16
  %38 = load ptr, ptr %7, align 8, !tbaa !20
  %39 = getelementptr inbounds nuw i16, ptr %38, i32 1
  store ptr %39, ptr %7, align 8, !tbaa !20
  store i16 %37, ptr %38, align 2, !tbaa !22
  call void @llvm.lifetime.end.p0(i64 4, ptr %10) #5
  br label %17, !llvm.loop !76

40:                                               ; preds = %17
  call void @llvm.lifetime.end.p0(i64 8, ptr %9) #5
  call void @llvm.lifetime.end.p0(i64 8, ptr %8) #5
  call void @llvm.lifetime.end.p0(i64 8, ptr %7) #5
  ret void
}